ccopy_reg
_reconstructor
p1
(cpandas.core.frame
DataFrame
p2
c__builtin__
object
p3
NtRp4
g1
(cpandas.core.internals
BlockManager
p5
g3
NtRp6
((lp7
cpandas.core.index
_new_Index
p8
(cpandas.core.index
Index
p9
(dp10
S'data'
p11
cnumpy.core.multiarray
_reconstruct
p12
(cnumpy
ndarray
p13
(I0
tS'b'
tRp14
(I1
(I16
tcnumpy
dtype
p15
(S'O8'
I0
I1
tRp16
(I3
S'|'
NNNI-1
I-1
I63
tbI00
(lp17
S'Topic'
p18
aI0
aI1
aI2
aI3
aI4
aI5
aI6
aI7
aI8
aI9
aI10
aI11
aI12
aI13
aI14
atbsS'name'
p19
NstRp20
ag8
(cpandas.core.index
Int64Index
p21
(dp22
g11
g12
(g13
(I0
tS'b'
tRp23
(I1
(I8
tg15
(S'i8'
I0
I1
tRp24
(I3
S'<'
NNNI-1
I-1
I0
tbI00
S'\x00\x00\x00\x00\x00\x00\x00\x00\x01\x00\x00\x00\x00\x00\x00\x00\x02\x00\x00\x00\x00\x00\x00\x00\x03\x00\x00\x00\x00\x00\x00\x00\x04\x00\x00\x00\x00\x00\x00\x00\x05\x00\x00\x00\x00\x00\x00\x00\x06\x00\x00\x00\x00\x00\x00\x00\x07\x00\x00\x00\x00\x00\x00\x00'
tbsg19
NstRp25
a(lp26
g12
(g13
(I0
tS'b'
tRp27
(I1
(I15
I8
tg16
I00
(lp28
S'knees'
p29
aS'hip'
p30
aS'time'
p31
aS'great'
p32
aS'knee'
p33
aS'appointment'
p34
aS'best'
p35
aS'mri'
p36
aS'knee'
p37
aS'pain'
p38
aS'really'
p39
aS'well'
p40
aS'pain'
p41
aS'minutes'
p42
aS'time'
p43
aS'office'
p44
aS'pain'
p45
aS'knee'
p46
aS'care'
p47
aS'hip'
p48
aS'much'
p49
aS'time'
p50
aS"he's"
p51
aS'needed'
p52
aS'hip'
p53
aS'time'
p54
aS'like'
p55
aS'sure'
p56
aS'time'
p57
aS'staff'
p58
aS'good'
p59
aS'atkin'
p60
aS'surgeries'
p61
aS'right'
p62
aS'best'
p63
aS'day'
p64
aS'years'
p65
aS'waiting'
p66
aS'bedside'
p67
aS'us'
p68
aS'orthopedic'
p69
aS'back'
p70
aS'staff'
p71
aS'care'
p72
aS'running'
p73
aS'day'
p74
aS'physical'
p75
aS'one'
p76
aS'one'
p77
aS"i'm"
p78
aS'treated'
p79
aS'appointment'
p80
aS'orthopedic'
p81
aS'told'
p82
aS'weeks'
p83
aS'back'
p84
aS'surgeons'
p85
aS'care'
p86
aS'office'
p87
aS'knee'
p88
aS'saw'
p89
aS'one'
p90
aS'pain'
p91
aS'physical'
p92
aS'great'
p93
aS'good'
p94
aS'shoulder'
p95
aS'need'
p96
aS'work'
p97
aS'me'
p98
aS'knee'
p99
aS'medical'
p100
aS'&'
aS'guy'
p101
aS'good'
p102
aS'way'
p103
aS'good'
p104
aS'late'
p105
aS'one'
p106
aS'images'
p107
aS'patellas'
p108
aS'labrum'
p109
aS'appointment'
p110
aS'always'
p111
aS'many'
p112
aS'first'
p113
aS'months'
p114
aS'new'
p115
aS'time'
p116
aS'day'
p117
aS'orthopedic'
p118
aS'since'
p119
aS'without'
p120
aS'say'
p121
aS'recommend'
p122
aS'really'
p123
aS'left'
p124
aS'since'
p125
aS'always'
p126
aS'couple'
p127
aS'best'
p128
aS'luke'
p129
aS'even'
p130
aS'day'
p131
aS"i've"
p132
aS'hips'
p133
aS'patient'
p134
aS'found'
p135
aS'even'
p136
aS'office'
p137
aS'amazing'
p138
aS'hip'
p139
aS'life'
p140
aS'left'
p141
aS'great'
p142
aS'shoulder'
p143
aS'team'
p144
aS'mri'
p145
aS'care'
p146
aS'tried'
p147
atbag12
(g13
(I0
tS'b'
tRp148
(I1
(I1
I8
tg24
I00
S'\x01\x00\x00\x00\x00\x00\x00\x00\x02\x00\x00\x00\x00\x00\x00\x00\x04\x00\x00\x00\x00\x00\x00\x00\x06\x00\x00\x00\x00\x00\x00\x00\x08\x00\x00\x00\x00\x00\x00\x00\x0b\x00\x00\x00\x00\x00\x00\x00\x0e\x00\x00\x00\x00\x00\x00\x00\x19\x00\x00\x00\x00\x00\x00\x00'
tba(lp149
g8
(g9
(dp150
g11
g12
(g13
(I0
tS'b'
tRp151
(I1
(I15
tg16
I00
(lp152
I0
aI1
aI2
aI3
aI4
aI5
aI6
aI7
aI8
aI9
aI10
aI11
aI12
aI13
aI14
atbsg19
NstRp153
ag8
(g9
(dp154
g11
g12
(g13
(I0
tS'b'
tRp155
(I1
(I1
tg16
I00
(lp156
g18
atbsg19
NstRp157
a(dp158
S'0.14.1'
p159
(dp160
S'axes'
p161
g7
sS'blocks'
p162
(lp163
(dp164
S'mgr_locs'
p165
c__builtin__
slice
p166
(I1
I16
I1
tRp167
sS'values'
p168
g27
sa(dp169
g165
g166
(I0
I1
I1
tRp170
sg168
g148
sasstbb.