ccopy_reg
_reconstructor
p1
(cpandas.core.frame
DataFrame
p2
c__builtin__
object
p3
NtRp4
g1
(cpandas.core.internals
BlockManager
p5
g3
NtRp6
((lp7
cpandas.core.index
_new_Index
p8
(cpandas.core.index
Index
p9
(dp10
S'data'
p11
cnumpy.core.multiarray
_reconstruct
p12
(cnumpy
ndarray
p13
(I0
tS'b'
tRp14
(I1
(I7
tcnumpy
dtype
p15
(S'O8'
I0
I1
tRp16
(I3
S'|'
NNNI-1
I-1
I63
tbI00
(lp17
S'Topic'
p18
aI0
aI1
aI2
aI3
aI4
aI5
atbsS'name'
p19
NstRp20
ag8
(cpandas.core.index
Int64Index
p21
(dp22
g11
g12
(g13
(I0
tS'b'
tRp23
(I1
(I8
tg15
(S'i8'
I0
I1
tRp24
(I3
S'<'
NNNI-1
I-1
I0
tbI00
S'\x00\x00\x00\x00\x00\x00\x00\x00\x01\x00\x00\x00\x00\x00\x00\x00\x02\x00\x00\x00\x00\x00\x00\x00\x03\x00\x00\x00\x00\x00\x00\x00\x04\x00\x00\x00\x00\x00\x00\x00\x05\x00\x00\x00\x00\x00\x00\x00\x06\x00\x00\x00\x00\x00\x00\x00\x07\x00\x00\x00\x00\x00\x00\x00'
tbsg19
NstRp25
a(lp26
g12
(g13
(I0
tS'b'
tRp27
(I1
(I1
I8
tg24
I00
S'\x01\x00\x00\x00\x00\x00\x00\x00\x02\x00\x00\x00\x00\x00\x00\x00\x04\x00\x00\x00\x00\x00\x00\x00\x08\x00\x00\x00\x00\x00\x00\x00\x0b\x00\x00\x00\x00\x00\x00\x00\x0e\x00\x00\x00\x00\x00\x00\x00\x10\x00\x00\x00\x00\x00\x00\x00\x19\x00\x00\x00\x00\x00\x00\x00'
tbag12
(g13
(I0
tS'b'
tRp28
(I1
(I6
I8
tg16
I00
(lp29
S'knees'
p30
aS'hip'
p31
aS'time'
p32
aS'knee'
p33
aS'appointment'
p34
aS'best'
p35
aS'great'
p36
aS'mri'
p37
aS'knee'
p38
aS'pain'
p39
aS'really'
p40
aS'pain'
p41
aS'minutes'
p42
aS'time'
p43
aS'one'
p44
aS'office'
p45
aS'pain'
p46
aS'knee'
p47
aS'care'
p48
aS'much'
p49
aS'time'
p50
aS"he's"
p51
aS'time'
p52
aS'needed'
p53
aS'hip'
p54
aS'time'
p55
aS'like'
p56
aS'time'
p57
aS'staff'
p58
aS'good'
p59
aS'even'
p60
aS'image'
p61
aS'surgeries'
p62
aS'right'
p63
aS'best'
p64
aS'years'
p65
aS'waiting'
p66
aS'bedside'
p67
aS'really'
p68
aS'us'
p69
aS'orthopedic'
p70
aS'back'
p71
aS'staff'
p72
aS'running'
p73
aS'day'
p74
aS'physical'
p75
aS'never'
p76
aS'one'
p77
atba(lp78
g8
(g9
(dp79
g11
g12
(g13
(I0
tS'b'
tRp80
(I1
(I1
tg16
I00
(lp81
g18
atbsg19
NstRp82
ag8
(g9
(dp83
g11
g12
(g13
(I0
tS'b'
tRp84
(I1
(I6
tg16
I00
(lp85
I0
aI1
aI2
aI3
aI4
aI5
atbsg19
NstRp86
a(dp87
S'0.14.1'
p88
(dp89
S'axes'
p90
g7
sS'blocks'
p91
(lp92
(dp93
S'mgr_locs'
p94
c__builtin__
slice
p95
(I0
I1
I1
tRp96
sS'values'
p97
g27
sa(dp98
g94
g95
(I1
I7
I1
tRp99
sg97
g28
sasstbb.